; Function Attrs: mustprogress uwtable
define void @_ZN5dtm_t3nopEv(ptr nocapture noundef nonnull align 8 dereferenceable(928) %0) local_unnamed_addr #0 align 2 {
  %2 = getelementptr inbounds i8, ptr %0, i64 872
  store i64 0, ptr %2, align 8
  %.sroa.22.0..sroa_idx.i = getelementptr inbounds i8, ptr %0, i64 880
  store i32 0, ptr %.sroa.22.0..sroa_idx.i, align 8
  %3 = getelementptr inbounds i8, ptr %0, i64 728
  %4 = load ptr, ptr %3, align 8
  tail call void @_ZN9context_t9switch_toEv(ptr noundef nonnull align 8 dereferenceable(32) %4)
  ret void
}